(dp1
S'02 Current'
p2
((lp3
F-1.4311808627098799e-08
aF0.00099951331503689289
aF0.0019978247582912445
aF0.0029967012815177441
aF0.0039983335882425308
aF0.0049973293207585812
aF0.0059959436766803265
aF0.006997289601713419
aF0.0079958681017160416
aF0.0089979413896799088
aF0.0099969655275344849
aNaF-1.18088792078197e-08
aF-1.2405507732182741e-08
aF-1.5264959074556828e-08
aF-1.6218109522014856e-08
aF-1.8961145542562008e-08
aF-2.3967004381120205e-08
aF-0.0009997290326282382
aF-0.0020007709972560406
aF-0.0030026896856725216
aF-0.0040016141720116138
aF-0.004999989178031683
aF-0.0060015618801116943
aF-0.0070001883432269096
aF-0.0079990886151790619
aF-0.0089977262541651726
aF-0.0099995657801628113
aS'A'
tp4
sS'05 Resistance'
p5
((lp6
F0
aF0
aF0
aF0
aF0
aF0
aF0
aF0
aF0
aF0
aF0
aF0
aF0
aF0
aF0
aF0
aF0
aF0
aF0
aF0
aF0
aF0
aF0
aF0
aF0
aF0
aF0
aF0
aS'\xce\xa9'
p7
tp8
sS'01 Time'
p9
((lp10
F4.7075040340423584
aF13.357638120651245
aF20.035768985748291
aF26.37226390838623
aF32.949590921401978
aF39.642768144607544
aF46.129471063613892
aF52.72839093208313
aF59.294871091842651
aF65.813350915908813
aF72.324451923370361
aF1661768182.289366
aF80.135106086730957
aF88.180665016174316
aF94.284270048141479
aF100.51558613777161
aF108.18369007110596
aF115.82254791259766
aF124.78459405899048
aF131.38229393959045
aF137.82155394554138
aF144.38887000083923
aF150.65365791320801
aF157.34742712974548
aF163.9938759803772
aF170.60817408561707
aF177.22286200523376
aF183.82157897949219
aS'second'
p11
tp12
sS'03 Voltage'
p13
((lp14
F-0.00033176690340042114
aF0.89406341314315796
aF0.90724235773086548
aF0.91773068904876709
aF0.924937903881073
aF0.93042165040969849
aF0.93421638011932373
aF0.93771255016326904
aF0.94052803516387939
aF0.94296789169311523
aF0.94515085220336914
aNaF-0.00032876431941986084
aF-0.99502074718475342
aF-1.9967665672302246
aF-2.995232105255127
aF-3.9934506416320801
aF-4.9915652275085449
aF-5.8846821784973145
aF-5.8856410980224609
aF-5.8888125419616699
aF-5.8921575546264648
aF-5.8955721855163574
aF-5.8989653587341309
aF-5.9023594856262207
aF-5.9057621955871582
aF-5.9091625213623047
aF-5.9125728607177734
aS'V'
tp15
sS'04 Vsrc'
p16
((lp17
F-0.00032323290361091495
aF0.90298348665237427
aF0.91708517074584961
aF0.92586547136306763
aF0.93254345655441284
aF0.9380486011505127
aF0.94282233715057373
aF0.94710808992385864
aF0.95101922750473022
aF0.95466184616088867
aF0.95806944370269775
aNaF-0.00032800546614453197
aF-0.99864387512207031
aF-1.9968547821044922
aF-2.9953536987304688
aF-3.9935860633850098
aF-4.9917111396789551
aF-5.8855690956115723
aF-5.8883142471313477
aF-5.8927927017211914
aF-5.8974113464355469
aF-5.9020829200744629
aF-5.9067420959472656
aF-5.9113931655883789
aF-5.9160547256469727
aF-5.9207301139831543
aF-5.925407886505127
aS'V'
tp18
sS'__sample__'
p19
(S'Shahrukh'
p20
S'1'
S'Copper Wire\n\n'
p21
tp22
sS'__version__'
p23
I1
s.