(dp1
S'02 Current'
p2
((lp3
F-1.4311808627098799e-08
aF0.0009995180880650878
aF0.0019978603813797235
aF0.0029967131558805704
aF0.0039983694441616535
aF0.0049973293207585812
aF0.0059959553182125092
aF0.0069973012432456017
aF0.007995891384780407
aF0.0089979534968733788
aF0.0099970009177923203
aNaF-1.6218109522014856e-08
aF-1.4311808627098799e-08
aF-1.1925294529646635e-08
aF-1.8124410416930914e-08
aF-1.3838871382176876e-08
aF-3.3745891414582729e-08
aF-7.1422255132347345e-07
aF-0.00099972670432180166
aF-0.0020007593557238579
aF-0.0030026659369468689
aF-0.0040016020648181438
aF-0.0049999775364995003
aF-0.0060015618801116943
aF-0.0070001287385821342
aF-0.0079990644007921219
aF-0.0089977020397782326
aF-0.0099995294585824013
aS'A'
tp4
sS'05 Resistance'
p5
((lp6
F0
aF0
aF0
aF0
aF0
aF0
aF0
aF0
aF0
aF0
aF0
aF0
aF0
aF0
aF0
aF0
aF0
aF0
aF0
aF0
aF0
aF0
aF0
aF0
aF0
aF0
aF0
aF0
aF0
aS'\xce\xa9'
p7
tp8
sS'01 Time'
p9
((lp10
F4.7072129249572754
aF13.55665397644043
aF20.36376690864563
aF26.851871013641357
aF33.400497913360596
aF39.806504011154175
aF46.406245946884155
aF52.972107887268066
aF59.445740938186646
aF66.108583927154541
aF72.675868988037109
aF1661771735.095629
aF80.563300848007202
aF86.834471940994263
aF94.913123846054077
aF102.88554096221924
aF110.50657796859741
aF118.35215282440186
aF126.16234302520752
aF134.90103387832642
aF141.54985499382019
aF148.21151995658875
aF154.67197585105896
aF161.25003886222839
aF167.81435084342957
aF174.41895198822021
aF181.01918697357178
aF187.4578549861908
aF193.93717384338379
aS'second'
p11
tp12
sS'03 Voltage'
p13
((lp14
F-0.00032376497983932495
aF0.6813431978225708
aF0.70412135124206543
aF0.71696734428405762
aF0.7262042760848999
aF0.73417669534683228
aF0.74027723073959351
aF0.74520003795623779
aF0.74940645694732666
aF0.75302302837371826
aF0.7562444806098938
aNaF-0.00032066553831100464
aF-0.99733603000640869
aF-1.9967536926269531
aF-2.9952273368835449
aF-3.9934482574462891
aF-4.9915590286254883
aF-5.9898347854614258
aF-6.2680764198303223
aF-6.262537956237793
aF-6.265864372253418
aF-6.2700009346008301
aF-6.2742395401000977
aF-6.2784652709960938
aF-6.2826652526855469
aF-6.2868385314941406
aF-6.2910213470458984
aF-6.2951765060424805
aS'V'
tp15
sS'04 Vsrc'
p16
((lp17
F-0.00032323290361091495
aF0.6854589581489563
aF0.70940762758255005
aF0.72350573539733887
aF0.73379057645797729
aF0.74197667837142944
aF0.74887782335281372
aF0.75491511821746826
aF0.76029974222183228
aF0.76521545648574829
aF0.76973384618759155
aNaF-0.00032919857767410576
aF-0.99864292144775391
aF-1.9968571662902832
aF-2.9953522682189941
aF-3.9935860633850098
aF-4.9917097091674805
aF-5.9899959564208984
aF-6.2675743103027344
aF-6.2652411460876465
aF-6.2700824737548828
aF-6.2755870819091797
aF-6.281156063079834
aF-6.2867178916931152
aF-6.2922382354736328
aF-6.2977380752563477
aF-6.303248405456543
aF-6.3087425231933594
aS'V'
tp18
sS'__sample__'
p19
(S'Shahrukh'
p20
S'1'
S'Copper Wire\n\n'
p21
tp22
sS'__version__'
p23
I1
s.