(dp1
S'02 Current'
p2
((lp3
F-8.9494278654456139e-09
aF0.00099949189461767673
aF0.0019978247582912445
aF0.002996641444042325
aF0.0039982739835977554
aF0.0049972101114690304
aF0.0059958240017294884
aF0.0069971345365047455
aF0.0079957125708460808
aF0.0089977383613586426
aF0.0099967503920197487
aNaF-1.5148543752729893e-08
aF-1.5861587598919868e-08
aF-1.0375515557825565e-08
aF-1.5024852473288774e-08
aF-1.2521923054009676e-08
aF-3.1956005841493607e-08
aF-7.4307899922132492e-07
aF-0.00099971005693078041
aF-0.0020007351413369179
aF-0.0030025825835764408
aF-0.0040015545673668385
aF-0.0049998462200164795
aF-0.0060014189220964909
aF-0.0069999853149056435
aF-0.0079988976940512657
aF-0.0089975232258439064
aF-0.0099993506446480751
aS'A'
tp4
sS'05 Resistance'
p5
((lp6
F0
aF0
aF0
aF0
aF0
aF0
aF0
aF0
aF0
aF0
aF0
aF0
aF0
aF0
aF0
aF0
aF0
aF0
aF0
aF0
aF0
aF0
aF0
aF0
aF0
aF0
aF0
aF0
aF0
aS'\xce\xa9'
p7
tp8
sS'01 Time'
p9
((lp10
F4.150629997253418
aF12.018893003463745
aF19.081062078475952
aF25.616756200790405
aF32.085687160491943
aF38.603557109832764
aF45.217485189437866
aF51.865166187286377
aF58.397833108901978
aF64.99543309211731
aF71.560340166091919
aF1661760033.788003
aF79.549429178237915
aF85.889538049697876
aF93.765680074691772
aF100.12469100952148
aF107.87367510795593
aF115.5900821685791
aF123.43388915061951
aF132.7166531085968
aF139.18699908256531
aF145.47180104255676
aF152.04643607139587
aF158.58158206939697
aF165.17897915840149
aF171.74374914169312
aF178.12650108337402
aF184.74949216842651
aF191.31556820869446
aS'second'
p11
tp12
sS'03 Voltage'
p13
((lp14
F-0.00037094950675964355
aF0.71590763330459595
aF0.7374107837677002
aF0.74955850839614868
aF0.7581106424331665
aF0.76470500230789185
aF0.77018076181411743
aF0.77482813596725464
aF0.77865076065063477
aF0.78228253126144409
aF0.78553634881973267
aNaF-0.00032906234264373779
aF-0.99531805515289307
aF-1.9966831207275391
aF-2.9950900077819824
aF-3.9932608604431152
aF-4.9913291931152344
aF-5.9895668029785156
aF-6.2114043235778809
aF-6.2044391632080078
aF-6.2071762084960938
aF-6.2112798690795898
aF-6.2156205177307129
aF-6.2199740409851074
aF-6.2243309020996094
aF-6.2286357879638672
aF-6.2329721450805664
aF-6.2373447418212891
aS'V'
tp15
sS'04 Vsrc'
p16
((lp17
F-0.00031607405981048942
aF0.71809488534927368
aF0.74081814289093018
aF0.75428867340087891
aF0.76415473222732544
aF0.7720533013343811
aF0.77872174978256226
aF0.78457528352737427
aF0.78980004787445068
aF0.79458451271057129
aF0.79898601770401001
aNaF-0.00031726720044389367
aF-0.99859046936035156
aF-1.9967617988586426
aF-2.9952139854431152
aF-3.993403434753418
aF-4.991487979888916
aF-5.9897375106811523
aF-6.210902214050293
aF-6.2070388793945312
aF-6.2113676071166992
aF-6.2168374061584473
aF-6.2224984169006348
aF-6.2281656265258789
aF-6.2338333129882812
aF-6.2394790649414062
aF-6.2451291084289551
aF-6.2508077621459961
aS'V'
tp18
sS'__sample__'
p19
(S'Shahrukh'
p20
S'1'
S'Copper Wire\n\n'
p21
tp22
sS'__version__'
p23
I1
s.