(dp1
S'02 Current'
p2
((lp3
F-1.6938429325819016e-08
aF0.00099946674890816212
aF0.0019978843629360199
aF0.0029966654255986214
aF0.0039982739835977554
aF0.0049971863627433777
aF0.0059957881458103657
aF0.0069971345365047455
aF0.0079956529662013054
aF0.0089976787567138672
aF0.0099966675043106079
aNaF-1.1925294529646635e-08
aF-1.0972144082188606e-08
aF-1.5388650353997946e-08
aF-1.5388650353997946e-08
aF-1.490843715146184e-08
aF-1.8961145542562008e-08
aF-0.00099966942798346281
aF-0.002000520471483469
aF-0.0030023558065295219
aF-0.0040012681856751442
aF-0.0049996078014373779
aF-0.0060011567547917366
aF-0.0069996989332139492
aF-0.0079985875636339188
aF-0.0089971888810396194
aF-0.0099990405142307281
aS'A'
tp4
sS'05 Resistance'
p5
((lp6
F0
aF0
aF0
aF0
aF0
aF0
aF0
aF0
aF0
aF0
aF0
aF0
aF0
aF0
aF0
aF0
aF0
aF0
aF0
aF0
aF0
aF0
aF0
aF0
aF0
aF0
aF0
aF0
aS'\xce\xa9'
p7
tp8
sS'01 Time'
p9
((lp10
F4.466562032699585
aF11.905813932418823
aF18.760268926620483
aF25.10381293296814
aF31.621564865112305
aF38.283511877059937
aF44.755368947982788
aF51.24251389503479
aF57.621871948242188
aF64.152016878128052
aF70.717309951782227
aF1661766485.6735289
aF78.476536989212036
aF84.696574926376343
aF90.928017854690552
aF97.286024808883667
aF105.08346199989319
aF112.84619283676147
aF121.90674185752869
aF128.4090678691864
aF134.97601699829102
aF141.53147792816162
aF148.23445200920105
aF154.77003693580627
aF161.18237996101379
aF167.75673890113831
aF174.37038683891296
aF180.93763899803162
aS'second'
p11
tp12
sS'03 Voltage'
p13
((lp14
F-0.00039536505937576294
aF0.93378067016601562
aF0.94496631622314453
aF0.95145660638809204
aF0.95592522621154785
aF0.95953375101089478
aF0.96278011798858643
aF0.96544176340103149
aF0.96760451793670654
aF0.96969956159591675
aF0.97173959016799927
aNaF-0.00034354627132415771
aF-0.99627476930618286
aF-1.9966220855712891
aF-2.9949984550476074
aF-3.9931354522705078
aF-4.9911775588989258
aF-5.8395538330078125
aF-5.8398923873901367
aF-5.8430604934692383
aF-5.846501350402832
aF-5.8499846458435059
aF-5.8534479141235352
aF-5.8569393157958984
aF-5.8604097366333008
aF-5.8639049530029297
aF-5.867426872253418
aS'V'
tp15
sS'04 Vsrc'
p16
((lp17
F-0.00029340444598346949
aF0.93580669164657593
aF0.94819265604019165
aF0.95595043897628784
aF0.96186244487762451
aF0.96675074100494385
aF0.97100424766540527
aF0.9748271107673645
aF0.97832059860229492
aF0.98157787322998047
aF0.98463708162307739
aNaF-0.00029459758661687374
aF-0.99852943420410156
aF-1.996666431427002
aF-2.9950909614562988
aF-3.9932494163513184
aF-4.9913101196289062
aF-5.8402986526489258
aF-5.8425254821777344
aF-5.8470067977905273
aF-5.8516979217529297
aF-5.856419563293457
aF-5.8611407279968262
aF-5.8658723831176758
aF-5.8706002235412598
aF-5.8753423690795898
aF-5.8801121711730957
aS'V'
tp18
sS'__sample__'
p19
(S'Shahrukh'
p20
S'1'
S'Copper Wire\n\n'
p21
tp22
sS'__version__'
p23
I1
s.