(dp1
S'02 Current'
p2
((lp3
F-1.1328666005283594e-08
aF0.00099951447919011116
aF0.0019978603813797235
aF0.0029967250302433968
aF0.0039983810856938362
aF0.0049973293207585812
aF0.0059959674254059792
aF0.0069973492063581944
aF0.007995915599167347
aF0.0089979888871312141
aF0.0099970372393727303
aNaF-9.9025783129036427e-09
aF-1.1095835361629725e-08
aF-1.8248101696372032e-08
aF-1.4792021829634905e-08
aF-1.5861587598919868e-08
aF-2.6353518478572369e-08
aF-3.1044110073707998e-06
aF-0.00099973625037819147
aF-0.0020007947459816933
aF-0.0030026896856725216
aF-0.0040016379207372665
aF-0.005000001285225153
aF-0.0060016214847564697
aF-0.0070001883432269096
aF-0.0079991118982434273
aF-0.0089977383613586426
aF-0.0099995778873562813
aS'A'
tp4
sS'05 Resistance'
p5
((lp6
F0
aF0
aF0
aF0
aF0
aF0
aF0
aF0
aF0
aF0
aF0
aF0
aF0
aF0
aF0
aF0
aF0
aF0
aF0
aF0
aF0
aF0
aF0
aF0
aF0
aF0
aF0
aF0
aF0
aS'\xce\xa9'
p7
tp8
sS'01 Time'
p9
((lp10
F5.5140819549560547
aF14.571245908737183
aF21.380528926849365
aF27.721072912216187
aF34.193493843078613
aF40.805775880813599
aF47.01173996925354
aF53.638223886489868
aF60.154363870620728
aF66.720227003097534
aF73.229609966278076
aF1661769786.3941641
aF81.0552818775177
aF87.266404867172241
aF95.19048285484314
aF102.96003794670105
aF110.70214581489563
aF118.58189582824707
aF126.16821479797363
aF135.53035092353821
aF142.08330488204956
aF148.47171497344971
aF155.03749084472656
aF161.6078097820282
aF168.04422187805176
aF174.69269895553589
aF181.20120286941528
aF187.77738499641418
aF194.39046096801758
aS'second'
p11
tp12
sS'03 Voltage'
p13
((lp14
F-0.0003205910325050354
aF0.82223564386367798
aF0.83854103088378906
aF0.8478119969367981
aF0.85436522960662842
aF0.85970354080200195
aF0.86392343044281006
aF0.86756640672683716
aF0.87068736553192139
aF0.87338751554489136
aF0.8758048415184021
aNaF-0.00031773000955581665
aF-0.99637836217880249
aF-1.9967608451843262
aF-2.995236873626709
aF-3.9934601783752441
aF-4.9915781021118164
aF-5.9898567199707031
aF-6.0315132141113281
aF-6.0249285697937012
aF-6.0278358459472656
aF-6.0317168235778809
aF-6.0357341766357422
aF-6.039790153503418
aF-6.0438036918640137
aF-6.0478482246398926
aF-6.0518665313720703
aF-6.0559191703796387
aS'V'
tp15
sS'04 Vsrc'
p16
((lp17
F-0.00032561918487772346
aF0.82464563846588135
aF0.84214299917221069
aF0.85268318653106689
aF0.86051255464553833
aF0.86683857440948486
aF0.87223511934280396
aF0.87700289487838745
aF0.88130062818527222
aF0.88526064157485962
aF0.88893312215805054
aNaF-0.00032800546614453197
aF-0.99864768981933594
aF-1.9968667030334473
aF-2.9953665733337402
aF-3.9936013221740723
aF-4.9917316436767578
aF-5.9900188446044922
aF-6.0306377410888672
aF-6.0275154113769531
aF-6.0319309234619141
aF-6.0371294021606445
aF-6.0424299240112305
aF-6.0477852821350098
aF-6.0530872344970703
aF-6.0584211349487305
aF-6.0637302398681641
aF-6.0690593719482422
aS'V'
tp18
sS'__sample__'
p19
(S'Shahrukh'
p20
S'1'
S'Copper Wire\n\n'
p21
tp22
sS'__version__'
p23
I1
s.