(dp1
S'02 Current'
p2
((lp3
F-1.2165401130914688e-08
aF0.00099950854200869799
aF0.0019978722557425499
aF0.0029967369046062231
aF0.0039983573369681835
aF0.0049973176792263985
aF0.0059959194622933865
aF0.006997277494519949
aF0.0079958559945225716
aF0.0089979292824864388
aF0.0099969767034053802
aNaF-1.0972144082188606e-08
aF-1.3242242857813835e-08
aF-1.7411366570740938e-08
aF-1.7891579773277044e-08
aF-1.0972144082188606e-08
aF-2.695014700293541e-08
aF-8.3477061707526445e-07
aF-0.00099972670432180166
aF-0.0020007472485303879
aF-0.0030026300810277462
aF-0.0040016020648181438
aF-0.0049999179318547249
aF-0.0060015022754669189
aF-0.0070001287385821342
aF-0.0079990047961473465
aF-0.0089976424351334572
aF-0.0099994698539376259
aS'A'
tp4
sS'05 Resistance'
p5
((lp6
F0
aF0
aF0
aF0
aF0
aF0
aF0
aF0
aF0
aF0
aF0
aF0
aF0
aF0
aF0
aF0
aF0
aF0
aF0
aF0
aF0
aF0
aF0
aF0
aF0
aF0
aF0
aF0
aF0
aS'\xce\xa9'
p7
tp8
sS'01 Time'
p9
((lp10
F4.582097053527832
aF12.106567859649658
aF19.062546968460083
aF25.644056081771851
aF32.382709980010986
aF38.971615076065063
aF45.679727077484131
aF52.184697866439819
aF58.636736869812012
aF65.203571081161499
aF71.686007976531982
aF1661770899.127717
aF79.586152076721191
aF85.699457883834839
aF91.928813934326172
aF98.10186505317688
aF105.74982404708862
aF113.59464597702026
aF121.36015892028809
aF130.146075963974
aF136.87764692306519
aF143.1869740486145
aF149.87891888618469
aF156.36477994918823
aF162.75613594055176
aF169.41378998756409
aF176.0171229839325
aF182.48748993873596
aF188.99598789215088
aS'second'
p11
tp12
sS'03 Voltage'
p13
((lp14
F-0.00036443769931793213
aF0.73991549015045166
aF0.76014047861099243
aF0.77164250612258911
aF0.78105920553207397
aF0.7890048623085022
aF0.79459720849990845
aF0.79913061857223511
aF0.80289971828460693
aF0.80622625350952148
aF0.80922037363052368
aNaF-0.00032223761081695557
aF-0.99681997299194336
aF-1.996741771697998
aF-2.9951901435852051
aF-3.9933981895446777
aF-4.9914984703063965
aF-5.9897584915161133
aF-6.1621608734130859
aF-6.1561017036437988
aF-6.1591262817382812
aF-6.1630449295043945
aF-6.1671361923217773
aF-6.171238899230957
aF-6.1753053665161133
aF-6.1793746948242188
aF-6.1834726333618164
aF-6.1875114440917969
aS'V'
tp15
sS'04 Vsrc'
p16
((lp17
F-0.00032919857767410576
aF0.74551433324813843
aF0.76691567897796631
aF0.77967983484268188
aF0.78908181190490723
aF0.79663193225860596
aF0.80302953720092773
aF0.80865639448165894
aF0.81368547677993774
aF0.8183017373085022
aF0.82255762815475464
aNaF-0.00032800546614453197
aF-0.99863433837890625
aF-1.996833324432373
aF-2.9953203201293945
aF-3.9935383796691895
aF-4.9916515350341797
aF-5.9899272918701172
aF-6.1615538597106934
aF-6.158747673034668
aF-6.1632823944091797
aF-6.168550968170166
aF-6.1739406585693359
aF-6.1793546676635742
aF-6.1847367286682129
aF-6.190119743347168
aF-6.1955070495605469
aF-6.2008795738220215
aS'V'
tp18
sS'__sample__'
p19
(S'Shahrukh'
p20
S'1'
S'Copper Wire\n\n'
p21
tp22
sS'__version__'
p23
I1
s.