(dp1
S'02 Current'
p2
((lp3
F-1.5505065675824881e-08
aF0.00099951331503689289
aF0.0019978126510977745
aF0.0029966891743242741
aF0.0039983573369681835
aF0.0049973293207585812
aF0.0059959315694868565
aF0.0069973133504390717
aF0.007995891384780407
aF0.0089979534968733788
aF0.0099970009177923203
aNaF-1.705484464764595e-08
aF-1.7171259969472885e-08
aF-1.5148543752729893e-08
aF-1.6814738046377897e-08
aF-1.4311808627098799e-08
aF-2.2060703486204147e-08
aF-0.00099972786847501993
aF-0.0020008068531751633
aF-0.0030026896856725216
aF-0.0040016495622694492
aF-0.005000001285225153
aF-0.0060015860944986343
aF-0.0070001883432269096
aF-0.0079991240054368973
aF-0.0089977383613586426
aF-0.0099995890632271767
aS'A'
tp4
sS'05 Resistance'
p5
((lp6
F0
aF0
aF0
aF0
aF0
aF0
aF0
aF0
aF0
aF0
aF0
aF0
aF0
aF0
aF0
aF0
aF0
aF0
aF0
aF0
aF0
aF0
aF0
aF0
aF0
aF0
aF0
aF0
aS'\xce\xa9'
p7
tp8
sS'01 Time'
p9
((lp10
F5.4425990581512451
aF14.415925025939941
aF21.351999998092651
aF27.689465999603271
aF34.303957939147949
aF40.87332010269165
aF47.424592018127441
aF53.734549045562744
aF60.379962921142578
aF66.786113023757935
aF73.256500959396362
aF1661769023.344625
aF81.248827934265137
aF89.154040098190308
aF95.289792060852051
aF103.29576396942139
aF111.10818791389465
aF118.95449995994568
aF127.81915497779846
aF134.34098410606384
aF140.90812993049622
aF147.47254395484924
aF153.86307001113892
aF160.4789080619812
aF167.12520408630371
aF173.64271402359009
aF180.27861595153809
aF186.82295513153076
aS'second'
p11
tp12
sS'03 Voltage'
p13
((lp14
F-0.00032170861959457397
aF0.86424893140792847
aF0.87845206260681152
aF0.88669848442077637
aF0.89262819290161133
aF0.89736145734786987
aF0.90117686986923218
aF0.9046664834022522
aF0.90796244144439697
aF0.91053503751754761
aF0.9127923846244812
aNaF-0.00031820684671401978
aF-0.99597012996673584
aF-1.9967632293701172
aF-2.9952402114868164
aF-3.9934635162353516
aF-4.991581916809082
aF-5.9476442337036133
aF-5.9504070281982422
aF-5.9542150497436523
aF-5.9581317901611328
aF-5.9620418548583984
aF-5.965972900390625
aF-5.9698600769042969
aF-5.9737682342529297
aF-5.9776287078857422
aF-5.9815578460693359
aS'V'
tp15
sS'04 Vsrc'
p16
((lp17
F-0.00032561918487772346
aF0.86787897348403931
aF0.88333368301391602
aF0.89275473356246948
aF0.89979898929595947
aF0.90553802251815796
aF0.91046208143234253
aF0.91484683752059937
aF0.91881048679351807
aF0.92247939109802246
aF0.9258953332901001
aNaF-0.00032561918487772346
aF-0.99865102767944336
aF-1.9968690872192383
aF-2.9953689575195312
aF-3.9936051368713379
aF-4.9917325973510742
aF-5.9488954544067383
aF-5.9531803131103516
aF-5.9582996368408203
aF-5.9634871482849121
aF-5.9686636924743652
aF-5.9738831520080566
aF-5.9790430068969727
aF-5.9842195510864258
aF-5.9893732070922852
aF-5.9945812225341797
aS'V'
tp18
sS'__sample__'
p19
(S'Shahrukh'
p20
S'1'
S'Copper Wire\n\n'
p21
tp22
sS'__version__'
p23
I1
s.