(dp1
S'02 Current'
p2
((lp3
F-6.8030203692615032e-09
aF0.00099950737785547972
aF0.0019978366326540709
aF0.0029967012815177441
aF0.0039983098395168781
aF0.0049972818233072758
aF0.0059958719648420811
aF0.0069972537457942963
aF0.0079958196729421616
aF0.008997858501970768
aF0.0099969292059540749
aNaF-7.3996488936245441e-09
aF-1.1212250683456659e-08
aF-1.8488208297640085e-08
aF-1.2521923054009676e-08
aF-9.3059497885406017e-09
aF-2.4447217583656311e-08
aF-0.00099971948657184839
aF-0.0020007472485303879
aF-0.0030026300810277462
aF-0.0040016141720116138
aF-0.0049999295733869076
aF-0.0060015143826603889
aF-0.0070001287385821342
aF-0.0079990047961473465
aF-0.0089976424351334572
aF-0.0099994940683245659
aS'A'
tp4
sS'05 Resistance'
p5
((lp6
F0
aF0
aF0
aF0
aF0
aF0
aF0
aF0
aF0
aF0
aF0
aF0
aF0
aF0
aF0
aF0
aF0
aF0
aF0
aF0
aF0
aF0
aF0
aF0
aF0
aF0
aF0
aF0
aS'\xce\xa9'
p7
tp8
sS'01 Time'
p9
((lp10
F4.6265518665313721
aF13.561235904693604
aF20.403308868408203
aF26.900207996368408
aF33.417914867401123
aF40.113672971725464
aF46.584517955780029
aF53.27724289894104
aF59.914125919342041
aF66.540681838989258
aF73.105819940567017
aF1661767421.370079
aF80.95197582244873
aF88.698483943939209
aF96.831741809844971
aF103.26924085617065
aF111.11592984199524
aF118.90485286712646
aF127.97040581703186
aF134.57409381866455
aF140.96009397506714
aF147.62331199645996
aF154.09907197952271
aF160.48436093330383
aF167.05065989494324
aF173.537437915802
aF179.97553491592407
aF186.52612400054932
aS'second'
p11
tp12
sS'03 Voltage'
p13
((lp14
F-0.00033769756555557251
aF0.9119066596031189
aF0.92328846454620361
aF0.93429028987884521
aF0.94216960668563843
aF0.94706761837005615
aF0.95071357488632202
aF0.953605055809021
aF0.95605719089508057
aF0.95821529626846313
aF0.96013045310974121
aNaF-0.00032833963632583618
aF-0.9963955283164978
aF-1.996734619140625
aF-2.9951844215393066
aF-3.9933872222900391
aF-4.991490364074707
aF-5.860175609588623
aF-5.8607187271118164
aF-5.8639969825744629
aF-5.8675203323364258
aF-5.8710489273071289
aF-5.8746356964111328
aF-5.8781957626342773
aF-5.8817577362060547
aF-5.8853540420532227
aF-5.8889412879943848
aS'V'
tp15
sS'04 Vsrc'
p16
((lp17
F-0.00031726720044389367
aF0.92213332653045654
aF0.93516361713409424
aF0.94328290224075317
aF0.94945144653320312
aF0.95453423261642456
aF0.95894163846969604
aF0.96289807558059692
aF0.96650612354278564
aF0.96986842155456543
aF0.9730147123336792
aNaF-0.00032084662234410644
aF-0.99862480163574219
aF-1.9968228340148926
aF-2.9953060150146484
aF-3.9935240745544434
aF-4.9916372299194336
aF-5.8609447479248047
aF-5.8633918762207031
aF-5.8679828643798828
aF-5.8727607727050781
aF-5.8775606155395508
aF-5.8823995590209961
aF-5.8872146606445312
aF-5.8920388221740723
aF-5.8968873023986816
aF-5.9017295837402344
aS'V'
tp18
sS'__sample__'
p19
(S'Shahrukh'
p20
S'1'
S'Copper Wire\n\n'
p21
tp22
sS'__version__'
p23
I1
s.